target datalayout = "e-m:e-p270:32:32-p271:32:32-p272:64:64-i64:64-i128:128-f80:128-n8:16:32:64-S128"
target triple = "x86_64-pc-linux-gnu"

%struct.tng_trajectory = type { ptr, ptr, i64, ptr, ptr, ptr, ptr, ptr, ptr, i8, i8, ptr, ptr, ptr, ptr, ptr, ptr, ptr, ptr, ptr, i64, i64, i8, i64, i64, i64, double, i64, ptr, ptr, i64, i64, i64, i64, i64, %struct.tng_trajectory_frame_set, i64, i64, i64, i32, ptr, i32, ptr, ptr, ptr, double }
%struct.tng_trajectory_frame_set = type { i64, ptr, i64, i64, i64, i64, ptr, i64, i64, i64, i64, i64, i64, i64, double, i32, ptr, i32, ptr }
%struct.tng_data = type { i64, ptr, i8, i8, i64, i64, i64, i64, i64, i64, double, ptr, ptr }

; Function Attrs: nounwind uwtable
define internal i32 @tng_data_find(ptr noundef %0, i64 noundef %1, ptr noundef %2) #0 {
  %4 = alloca i32, align 4
  %5 = alloca ptr, align 8
  %6 = alloca i64, align 8
  %7 = alloca ptr, align 8
  %8 = alloca i64, align 8
  %9 = alloca i64, align 8
  %10 = alloca ptr, align 8
  %11 = alloca i8, align 1
  %12 = alloca i32, align 4
  store ptr %0, ptr %5, align 8, !tbaa !3
  store i64 %1, ptr %6, align 8, !tbaa !26
  store ptr %2, ptr %7, align 8, !tbaa !337
  call void @llvm.lifetime.start.p0(i64 8, ptr %8) #11
  call void @llvm.lifetime.start.p0(i64 8, ptr %9) #11
  call void @llvm.lifetime.start.p0(i64 8, ptr %10) #11
  %13 = load ptr, ptr %5, align 8, !tbaa !3
  %14 = getelementptr inbounds nuw %struct.tng_trajectory, ptr %13, i32 0, i32 35
  store ptr %14, ptr %10, align 8, !tbaa !121
  call void @llvm.lifetime.start.p0(i64 1, ptr %11) #11
  %15 = load ptr, ptr %5, align 8, !tbaa !3
  %16 = getelementptr inbounds nuw %struct.tng_trajectory, ptr %15, i32 0, i32 36
  %17 = load i64, ptr %16, align 8, !tbaa !152
  %18 = icmp sgt i64 %17, 0
  br i1 %18, label %24, label %19

19:                                               ; preds = %3
  %20 = load ptr, ptr %5, align 8, !tbaa !3
  %21 = getelementptr inbounds nuw %struct.tng_trajectory, ptr %20, i32 0, i32 37
  %22 = load i64, ptr %21, align 8, !tbaa !155
  %23 = icmp sgt i64 %22, 0
  br i1 %23, label %24, label %25

24:                                               ; preds = %19, %3
  store i8 1, ptr %11, align 1, !tbaa !23
  br label %26

25:                                               ; preds = %19
  store i8 0, ptr %11, align 1, !tbaa !23
  br label %26

26:                                               ; preds = %25, %24
  store i64 -1, ptr %8, align 8, !tbaa !26
  %27 = load i8, ptr %11, align 1, !tbaa !23
  %28 = sext i8 %27 to i32
  %29 = icmp eq i32 %28, 1
  br i1 %29, label %30, label %89

30:                                               ; preds = %26
  store i64 0, ptr %9, align 8, !tbaa !26
  br label %31

31:                                               ; preds = %54, %30
  %32 = load i64, ptr %9, align 8, !tbaa !26
  %33 = load ptr, ptr %10, align 8, !tbaa !121
  %34 = getelementptr inbounds nuw %struct.tng_trajectory_frame_set, ptr %33, i32 0, i32 17
  %35 = load i32, ptr %34, align 8, !tbaa !172
  %36 = sext i32 %35 to i64
  %37 = icmp slt i64 %32, %36
  br i1 %37, label %38, label %57

38:                                               ; preds = %31
  %39 = load ptr, ptr %10, align 8, !tbaa !121
  %40 = getelementptr inbounds nuw %struct.tng_trajectory_frame_set, ptr %39, i32 0, i32 18
  %41 = load ptr, ptr %40, align 8, !tbaa !174
  %42 = load i64, ptr %9, align 8, !tbaa !26
  %43 = getelementptr inbounds %struct.tng_data, ptr %41, i64 %42
  %44 = load ptr, ptr %7, align 8, !tbaa !337
  store ptr %43, ptr %44, align 8, !tbaa !246
  %45 = load ptr, ptr %7, align 8, !tbaa !337
  %46 = load ptr, ptr %45, align 8, !tbaa !246
  %47 = getelementptr inbounds nuw %struct.tng_data, ptr %46, i32 0, i32 0
  %48 = load i64, ptr %47, align 8, !tbaa !229
  %49 = load i64, ptr %6, align 8, !tbaa !26
  %50 = icmp eq i64 %48, %49
  br i1 %50, label %51, label %53

51:                                               ; preds = %38
  %52 = load i64, ptr %9, align 8, !tbaa !26
  store i64 %52, ptr %8, align 8, !tbaa !26
  br label %57

53:                                               ; preds = %38
  br label %54

54:                                               ; preds = %53
  %55 = load i64, ptr %9, align 8, !tbaa !26
  %56 = add nsw i64 %55, 1
  store i64 %56, ptr %9, align 8, !tbaa !26
  br label %31, !llvm.loop !341

57:                                               ; preds = %51, %31
  %58 = load i64, ptr %8, align 8, !tbaa !26
  %59 = icmp eq i64 %58, -1
  br i1 %59, label %60, label %88

60:                                               ; preds = %57
  store i64 0, ptr %9, align 8, !tbaa !26
  br label %61

61:                                               ; preds = %84, %60
  %62 = load i64, ptr %9, align 8, !tbaa !26
  %63 = load ptr, ptr %5, align 8, !tbaa !3
  %64 = getelementptr inbounds nuw %struct.tng_trajectory, ptr %63, i32 0, i32 41
  %65 = load i32, ptr %64, align 8, !tbaa !162
  %66 = sext i32 %65 to i64
  %67 = icmp slt i64 %62, %66
  br i1 %67, label %68, label %87

68:                                               ; preds = %61
  %69 = load ptr, ptr %5, align 8, !tbaa !3
  %70 = getelementptr inbounds nuw %struct.tng_trajectory, ptr %69, i32 0, i32 42
  %71 = load ptr, ptr %70, align 8, !tbaa !164
  %72 = load i64, ptr %9, align 8, !tbaa !26
  %73 = getelementptr inbounds %struct.tng_data, ptr %71, i64 %72
  %74 = load ptr, ptr %7, align 8, !tbaa !337
  store ptr %73, ptr %74, align 8, !tbaa !246
  %75 = load ptr, ptr %7, align 8, !tbaa !337
  %76 = load ptr, ptr %75, align 8, !tbaa !246
  %77 = getelementptr inbounds nuw %struct.tng_data, ptr %76, i32 0, i32 0
  %78 = load i64, ptr %77, align 8, !tbaa !229
  %79 = load i64, ptr %6, align 8, !tbaa !26
  %80 = icmp eq i64 %78, %79
  br i1 %80, label %81, label %83

81:                                               ; preds = %68
  %82 = load i64, ptr %9, align 8, !tbaa !26
  store i64 %82, ptr %8, align 8, !tbaa !26
  br label %87

83:                                               ; preds = %68
  br label %84

84:                                               ; preds = %83
  %85 = load i64, ptr %9, align 8, !tbaa !26
  %86 = add nsw i64 %85, 1
  store i64 %86, ptr %9, align 8, !tbaa !26
  br label %61, !llvm.loop !342

87:                                               ; preds = %81, %61
  br label %88

88:                                               ; preds = %87, %57
  br label %117

89:                                               ; preds = %26
  store i64 0, ptr %9, align 8, !tbaa !26
  br label %90

90:                                               ; preds = %113, %89
  %91 = load i64, ptr %9, align 8, !tbaa !26
  %92 = load ptr, ptr %5, align 8, !tbaa !3
  %93 = getelementptr inbounds nuw %struct.tng_trajectory, ptr %92, i32 0, i32 41
  %94 = load i32, ptr %93, align 8, !tbaa !162
  %95 = sext i32 %94 to i64
  %96 = icmp slt i64 %91, %95
  br i1 %96, label %97, label %116

97:                                               ; preds = %90
  %98 = load ptr, ptr %5, align 8, !tbaa !3
  %99 = getelementptr inbounds nuw %struct.tng_trajectory, ptr %98, i32 0, i32 42
  %100 = load ptr, ptr %99, align 8, !tbaa !164
  %101 = load i64, ptr %9, align 8, !tbaa !26
  %102 = getelementptr inbounds %struct.tng_data, ptr %100, i64 %101
  %103 = load ptr, ptr %7, align 8, !tbaa !337
  store ptr %102, ptr %103, align 8, !tbaa !246
  %104 = load ptr, ptr %7, align 8, !tbaa !337
  %105 = load ptr, ptr %104, align 8, !tbaa !246
  %106 = getelementptr inbounds nuw %struct.tng_data, ptr %105, i32 0, i32 0
  %107 = load i64, ptr %106, align 8, !tbaa !229
  %108 = load i64, ptr %6, align 8, !tbaa !26
  %109 = icmp eq i64 %107, %108
  br i1 %109, label %110, label %112

110:                                              ; preds = %97
  %111 = load i64, ptr %9, align 8, !tbaa !26
  store i64 %111, ptr %8, align 8, !tbaa !26
  br label %116

112:                                              ; preds = %97
  br label %113

113:                                              ; preds = %112
  %114 = load i64, ptr %9, align 8, !tbaa !26
  %115 = add nsw i64 %114, 1
  store i64 %115, ptr %9, align 8, !tbaa !26
  br label %90, !llvm.loop !343

116:                                              ; preds = %110, %90
  br label %117

117:                                              ; preds = %116, %88
  %118 = load i64, ptr %8, align 8, !tbaa !26
  %119 = icmp eq i64 %118, -1
  br i1 %119, label %120, label %121

120:                                              ; preds = %117
  store i32 1, ptr %4, align 4
  store i32 1, ptr %12, align 4
  br label %122

121:                                              ; preds = %117
  store i32 0, ptr %4, align 4
  store i32 1, ptr %12, align 4
  br label %122

122:                                              ; preds = %121, %120
  call void @llvm.lifetime.end.p0(i64 1, ptr %11) #11
  call void @llvm.lifetime.end.p0(i64 8, ptr %10) #11
  call void @llvm.lifetime.end.p0(i64 8, ptr %9) #11
  call void @llvm.lifetime.end.p0(i64 8, ptr %8) #11
  %123 = load i32, ptr %4, align 4
  ret i32 %123
}