; Function Attrs: nofree norecurse nosync nounwind memory(read, argmem: readwrite, inaccessiblemem: none) uwtable
define internal fastcc range(i32 0, 2) i32 @tng_data_find(ptr noundef readonly captures(none) %0, i64 noundef %1, ptr noundef nonnull writeonly captures(none) %2) unnamed_addr #13 {
  %4 = getelementptr inbounds nuw i8, ptr %0, i64 424
  %5 = load i64, ptr %4, align 8, !tbaa !194
  %6 = icmp sgt i64 %5, 0
  br i1 %6, label %16, label %7

7:                                                ; preds = %3
  %8 = getelementptr inbounds nuw i8, ptr %0, i64 432
  %9 = load i64, ptr %8, align 8, !tbaa !186
  %10 = icmp sgt i64 %9, 0
  br i1 %10, label %16, label %.critedge.preheader

.critedge.preheader:                              ; preds = %7
  %11 = getelementptr inbounds nuw i8, ptr %0, i64 472
  %12 = getelementptr inbounds nuw i8, ptr %0, i64 464
  %13 = load i32, ptr %12, align 8, !tbaa !124
  %14 = sext i32 %13 to i64
  %15 = icmp sgt i32 %13, 0
  br i1 %15, label %.lr.ph, label %.thread

16:                                               ; preds = %7, %3
  %17 = getelementptr inbounds nuw i8, ptr %0, i64 408
  %18 = load i32, ptr %17, align 8, !tbaa !130
  %19 = sext i32 %18 to i64
  %.not45 = icmp sgt i32 %18, 0
  br i1 %.not45, label %.lr.ph47, label %.critedge38.preheader

.lr.ph47:                                         ; preds = %16
  %20 = getelementptr inbounds nuw i8, ptr %0, i64 416
  br label %28

21:                                               ; preds = %28
  %22 = add nuw nsw i64 %.03446, 1
  %exitcond55.not = icmp eq i64 %22, %19
  br i1 %exitcond55.not, label %.critedge38.preheader, label %28, !llvm.loop !238

.critedge38.preheader:                            ; preds = %21, %16
  %23 = getelementptr inbounds nuw i8, ptr %0, i64 472
  %24 = getelementptr inbounds nuw i8, ptr %0, i64 464
  %25 = load i32, ptr %24, align 8, !tbaa !124
  %26 = sext i32 %25 to i64
  %27 = icmp sgt i32 %25, 0
  br i1 %27, label %.lr.ph49, label %.thread

28:                                               ; preds = %.lr.ph47, %21
  %.03446 = phi i64 [ 0, %.lr.ph47 ], [ %22, %21 ]
  %29 = load ptr, ptr %20, align 8, !tbaa !132
  %30 = getelementptr inbounds nuw %struct.tng_data, ptr %29, i64 %.03446
  store ptr %30, ptr %2, align 8, !tbaa !215
  %31 = load i64, ptr %30, align 8, !tbaa !204
  %32 = icmp eq i64 %31, %1
  br i1 %32, label %.thread, label %21

.critedge38:                                      ; preds = %.lr.ph49
  %33 = add nuw nsw i64 %.148, 1
  %exitcond56.not = icmp eq i64 %33, %26
  br i1 %exitcond56.not, label %.thread, label %.lr.ph49, !llvm.loop !239

.lr.ph49:                                         ; preds = %.critedge38.preheader, %.critedge38
  %.148 = phi i64 [ %33, %.critedge38 ], [ 0, %.critedge38.preheader ]
  %34 = load ptr, ptr %23, align 8, !tbaa !167
  %35 = getelementptr inbounds nuw %struct.tng_data, ptr %34, i64 %.148
  store ptr %35, ptr %2, align 8, !tbaa !215
  %36 = load i64, ptr %35, align 8, !tbaa !204
  %37 = icmp eq i64 %36, %1
  br i1 %37, label %.thread, label %.critedge38

.critedge:                                        ; preds = %.lr.ph
  %38 = add nuw nsw i64 %.243, 1
  %exitcond.not = icmp eq i64 %38, %14
  br i1 %exitcond.not, label %.thread, label %.lr.ph, !llvm.loop !240

.lr.ph:                                           ; preds = %.critedge.preheader, %.critedge
  %.243 = phi i64 [ %38, %.critedge ], [ 0, %.critedge.preheader ]
  %39 = load ptr, ptr %11, align 8, !tbaa !167
  %40 = getelementptr inbounds nuw %struct.tng_data, ptr %39, i64 %.243
  store ptr %40, ptr %2, align 8, !tbaa !215
  %41 = load i64, ptr %40, align 8, !tbaa !204
  %42 = icmp eq i64 %41, %1
  br i1 %42, label %.thread, label %.critedge

.thread:                                          ; preds = %.critedge, %.lr.ph, %28, %.critedge38, %.lr.ph49, %.critedge.preheader, %.critedge38.preheader
  %43 = phi i32 [ 1, %.critedge38.preheader ], [ 1, %.critedge.preheader ], [ 1, %.critedge38 ], [ 0, %.lr.ph49 ], [ 0, %28 ], [ 1, %.critedge ], [ 0, %.lr.ph ]
  ret i32 %43
}